target datalayout = "e-m:e-p270:32:32-p271:32:32-p272:64:64-i64:64-i128:128-f80:128-n8:16:32:64-S128"
target triple = "x86_64-unknown-linux-gnu"

%"class.icu_75::SimpleTimeZone" = type { %"class.icu_75::BasicTimeZone", i8, i8, i8, i32, i32, i32, i8, i8, i8, i32, i32, i32, i8, i32, i32, i32, i8, ptr, ptr, ptr, ptr }
%"class.icu_75::BasicTimeZone" = type { %"class.icu_75::TimeZone" }
%"class.icu_75::TimeZone" = type { %"class.icu_75::UObject", %"class.icu_75::UnicodeString" }
%"class.icu_75::UObject" = type { ptr }
%"class.icu_75::UnicodeString" = type { %"class.icu_75::Replaceable", %"union.icu_75::UnicodeString::StackBufferOrFields" }
%"class.icu_75::Replaceable" = type { %"class.icu_75::UObject" }
%"union.icu_75::UnicodeString::StackBufferOrFields" = type { %struct.anon.0, [32 x i8] }
%struct.anon.0 = type { i16, i32, i32, ptr }

; Function Attrs: mustprogress nounwind uwtable
define void @_ZN6icu_7514SimpleTimeZone20clearTransitionRulesEv(ptr noundef nonnull align 8 dereferenceable(160) %this) #0 align 2 {
entry:
  %this.addr = alloca ptr, align 8
  store ptr %this, ptr %this.addr, align 8
  %this1 = load ptr, ptr %this.addr, align 8
  %initialRule = getelementptr inbounds %"class.icu_75::SimpleTimeZone", ptr %this1, i32 0, i32 18
  store ptr null, ptr %initialRule, align 8
  %firstTransition = getelementptr inbounds %"class.icu_75::SimpleTimeZone", ptr %this1, i32 0, i32 19
  store ptr null, ptr %firstTransition, align 8
  %stdRule = getelementptr inbounds %"class.icu_75::SimpleTimeZone", ptr %this1, i32 0, i32 20
  store ptr null, ptr %stdRule, align 8
  %dstRule = getelementptr inbounds %"class.icu_75::SimpleTimeZone", ptr %this1, i32 0, i32 21
  store ptr null, ptr %dstRule, align 8
  %transitionRulesInitialized = getelementptr inbounds %"class.icu_75::SimpleTimeZone", ptr %this1, i32 0, i32 17
  store i8 0, ptr %transitionRulesInitialized, align 8
  ret void
}

; Function Attrs: mustprogress nounwind uwtable
define void @_ZN6icu_7514SimpleTimeZone21deleteTransitionRulesEv(ptr noundef nonnull align 8 dereferenceable(160) %this) #0 align 2 {
entry:
  %this.addr = alloca ptr, align 8
  store ptr %this, ptr %this.addr, align 8
  %this1 = load ptr, ptr %this.addr, align 8
  %initialRule = getelementptr inbounds %"class.icu_75::SimpleTimeZone", ptr %this1, i32 0, i32 18
  %0 = load ptr, ptr %initialRule, align 8
  %cmp = icmp ne ptr %0, null
  br i1 %cmp, label %if.then, label %if.end

if.then:                                          ; preds = %entry
  %initialRule2 = getelementptr inbounds %"class.icu_75::SimpleTimeZone", ptr %this1, i32 0, i32 18
  %1 = load ptr, ptr %initialRule2, align 8
  %isnull = icmp eq ptr %1, null
  br i1 %isnull, label %delete.end, label %delete.notnull

delete.notnull:                                   ; preds = %if.then
  %vtable = load ptr, ptr %1, align 8
  %vfn = getelementptr inbounds ptr, ptr %vtable, i64 1
  %2 = load ptr, ptr %vfn, align 8
  call void %2(ptr noundef nonnull align 8 dereferenceable(80) %1) #5
  br label %delete.end

delete.end:                                       ; preds = %delete.notnull, %if.then
  br label %if.end

if.end:                                           ; preds = %delete.end, %entry
  %firstTransition = getelementptr inbounds %"class.icu_75::SimpleTimeZone", ptr %this1, i32 0, i32 19
  %3 = load ptr, ptr %firstTransition, align 8
  %cmp3 = icmp ne ptr %3, null
  br i1 %cmp3, label %if.then4, label %if.end11

if.then4:                                         ; preds = %if.end
  %firstTransition5 = getelementptr inbounds %"class.icu_75::SimpleTimeZone", ptr %this1, i32 0, i32 19
  %4 = load ptr, ptr %firstTransition5, align 8
  %isnull6 = icmp eq ptr %4, null
  br i1 %isnull6, label %delete.end10, label %delete.notnull7

delete.notnull7:                                  ; preds = %if.then4
  %vtable8 = load ptr, ptr %4, align 8
  %vfn9 = getelementptr inbounds ptr, ptr %vtable8, i64 1
  %5 = load ptr, ptr %vfn9, align 8
  call void %5(ptr noundef nonnull align 8 dereferenceable(32) %4) #5
  br label %delete.end10

delete.end10:                                     ; preds = %delete.notnull7, %if.then4
  br label %if.end11

if.end11:                                         ; preds = %delete.end10, %if.end
  %stdRule = getelementptr inbounds %"class.icu_75::SimpleTimeZone", ptr %this1, i32 0, i32 20
  %6 = load ptr, ptr %stdRule, align 8
  %cmp12 = icmp ne ptr %6, null
  br i1 %cmp12, label %if.then13, label %if.end20

if.then13:                                        ; preds = %if.end11
  %stdRule14 = getelementptr inbounds %"class.icu_75::SimpleTimeZone", ptr %this1, i32 0, i32 20
  %7 = load ptr, ptr %stdRule14, align 8
  %isnull15 = icmp eq ptr %7, null
  br i1 %isnull15, label %delete.end19, label %delete.notnull16

delete.notnull16:                                 ; preds = %if.then13
  %vtable17 = load ptr, ptr %7, align 8
  %vfn18 = getelementptr inbounds ptr, ptr %vtable17, i64 1
  %8 = load ptr, ptr %vfn18, align 8
  call void %8(ptr noundef nonnull align 8 dereferenceable(96) %7) #5
  br label %delete.end19

delete.end19:                                     ; preds = %delete.notnull16, %if.then13
  br label %if.end20

if.end20:                                         ; preds = %delete.end19, %if.end11
  %dstRule = getelementptr inbounds %"class.icu_75::SimpleTimeZone", ptr %this1, i32 0, i32 21
  %9 = load ptr, ptr %dstRule, align 8
  %cmp21 = icmp ne ptr %9, null
  br i1 %cmp21, label %if.then22, label %if.end29

if.then22:                                        ; preds = %if.end20
  %dstRule23 = getelementptr inbounds %"class.icu_75::SimpleTimeZone", ptr %this1, i32 0, i32 21
  %10 = load ptr, ptr %dstRule23, align 8
  %isnull24 = icmp eq ptr %10, null
  br i1 %isnull24, label %delete.end28, label %delete.notnull25

delete.notnull25:                                 ; preds = %if.then22
  %vtable26 = load ptr, ptr %10, align 8
  %vfn27 = getelementptr inbounds ptr, ptr %vtable26, i64 1
  %11 = load ptr, ptr %vfn27, align 8
  call void %11(ptr noundef nonnull align 8 dereferenceable(96) %10) #5
  br label %delete.end28

delete.end28:                                     ; preds = %delete.notnull25, %if.then22
  br label %if.end29

if.end29:                                         ; preds = %delete.end28, %if.end20
  call void @_ZN6icu_7514SimpleTimeZone20clearTransitionRulesEv(ptr noundef nonnull align 8 dereferenceable(160) %this1)
  ret void
}