; Function Attrs: mustprogress nounwind uwtable
define void @_ZN6icu_7514SimpleTimeZone21deleteTransitionRulesEv(ptr nocapture noundef nonnull align 8 dereferenceable(160) %this) local_unnamed_addr #6 align 2 {
entry:
  %initialRule = getelementptr inbounds i8, ptr %this, i64 128
  %0 = load ptr, ptr %initialRule, align 8
  %cmp.not = icmp eq ptr %0, null
  br i1 %cmp.not, label %if.end, label %delete.notnull

delete.notnull:                                   ; preds = %entry
  %vtable = load ptr, ptr %0, align 8
  %vfn = getelementptr inbounds i8, ptr %vtable, i64 8
  %1 = load ptr, ptr %vfn, align 8
  tail call void %1(ptr noundef nonnull align 8 dereferenceable(80) %0) #13
  br label %if.end

if.end:                                           ; preds = %delete.notnull, %entry
  %firstTransition = getelementptr inbounds i8, ptr %this, i64 136
  %2 = load ptr, ptr %firstTransition, align 8
  %cmp3.not = icmp eq ptr %2, null
  br i1 %cmp3.not, label %if.end11, label %delete.notnull7

delete.notnull7:                                  ; preds = %if.end
  %vtable8 = load ptr, ptr %2, align 8
  %vfn9 = getelementptr inbounds i8, ptr %vtable8, i64 8
  %3 = load ptr, ptr %vfn9, align 8
  tail call void %3(ptr noundef nonnull align 8 dereferenceable(32) %2) #13
  br label %if.end11

if.end11:                                         ; preds = %delete.notnull7, %if.end
  %stdRule = getelementptr inbounds i8, ptr %this, i64 144
  %4 = load ptr, ptr %stdRule, align 8
  %cmp12.not = icmp eq ptr %4, null
  br i1 %cmp12.not, label %if.end20, label %delete.notnull16

delete.notnull16:                                 ; preds = %if.end11
  %vtable17 = load ptr, ptr %4, align 8
  %vfn18 = getelementptr inbounds i8, ptr %vtable17, i64 8
  %5 = load ptr, ptr %vfn18, align 8
  tail call void %5(ptr noundef nonnull align 8 dereferenceable(96) %4) #13
  br label %if.end20

if.end20:                                         ; preds = %delete.notnull16, %if.end11
  %dstRule = getelementptr inbounds i8, ptr %this, i64 152
  %6 = load ptr, ptr %dstRule, align 8
  %cmp21.not = icmp eq ptr %6, null
  br i1 %cmp21.not, label %if.end29, label %delete.notnull25

delete.notnull25:                                 ; preds = %if.end20
  %vtable26 = load ptr, ptr %6, align 8
  %vfn27 = getelementptr inbounds i8, ptr %vtable26, i64 8
  %7 = load ptr, ptr %vfn27, align 8
  tail call void %7(ptr noundef nonnull align 8 dereferenceable(96) %6) #13
  br label %if.end29

if.end29:                                         ; preds = %delete.notnull25, %if.end20
  %transitionRulesInitialized.i = getelementptr inbounds i8, ptr %this, i64 120
  store i8 0, ptr %transitionRulesInitialized.i, align 8
  tail call void @llvm.memset.p0.i64(ptr noundef nonnull align 8 dereferenceable(32) %initialRule, i8 0, i64 32, i1 false)
  ret void
}